; Function Attrs: nounwind uwtable
define hidden void @_PyEval_AcquireLock(ptr noundef %0) local_unnamed_addr #4 {
  %2 = icmp eq ptr %0, null
  br i1 %2, label %3, label %_Py_EnsureFuncTstateNotNULL.exit

3:                                                ; preds = %1
  tail call void @_Py_FatalErrorFunc(ptr noundef nonnull @__func__._PyEval_AcquireLock, ptr noundef nonnull @.str.9) #15
  unreachable

_Py_EnsureFuncTstateNotNULL.exit:                 ; preds = %1
  tail call fastcc void @take_gil(ptr noundef nonnull %0)
  ret void
}